target datalayout = "e-m:e-p270:32:32-p271:32:32-p272:64:64-i64:64-i128:128-f80:128-n8:16:32:64-S128"
target triple = "x86_64-pc-linux-gnu"

%"class.cv::Vec" = type { %"class.cv::Matx" }
%"class.cv::Matx" = type { [3 x float] }
%"class.cv::Matx.0" = type { [9 x float] }
%"class.cv::Matx.3" = type { [16 x float] }
%"class.cv::Affine3" = type { %"class.cv::Matx.3" }
%"struct.cv::colored_kinfu::Params" = type <{ %"class.cv::Size_", %"class.cv::Size_", i32, %"class.cv::Matx.0", %"class.cv::Matx.0", float, float, float, i32, i32, %"class.cv::Vec.1", float, float, %"class.cv::Affine3", float, i32, float, %"class.cv::Vec", float, float, [4 x i8], %"class.std::vector", float, [4 x i8] }>
%"class.cv::Size_" = type { i32, i32 }
%"class.cv::Vec.1" = type { %"class.cv::Matx.2" }
%"class.cv::Matx.2" = type { [3 x i32] }
%"class.std::vector" = type { %"struct.std::_Vector_base" }
%"struct.std::_Vector_base" = type { %"struct.std::_Vector_base<int, std::allocator<int>>::_Vector_impl" }
%"struct.std::_Vector_base<int, std::allocator<int>>::_Vector_impl" = type { %"struct.std::_Vector_base<int, std::allocator<int>>::_Vector_impl_data" }
%"struct.std::_Vector_base<int, std::allocator<int>>::_Vector_impl_data" = type { ptr, ptr, ptr }

; Function Attrs: mustprogress nounwind uwtable
define linkonce_odr hidden noundef nonnull align 4 dereferenceable(4) ptr @_ZNK2cv3VecIfLi3EEixEi(ptr noundef nonnull align 4 dereferenceable(12) %0, i32 noundef %1) #5 comdat align 2 {
  %3 = alloca ptr, align 8
  %4 = alloca i32, align 4
  store ptr %0, ptr %3, align 8
  store i32 %1, ptr %4, align 4
  %5 = load ptr, ptr %3, align 8
  %6 = getelementptr inbounds %"class.cv::Matx", ptr %5, i32 0, i32 0
  %7 = load i32, ptr %4, align 4
  %8 = sext i32 %7 to i64
  %9 = getelementptr inbounds [3 x float], ptr %6, i64 0, i64 %8
  ret ptr %9
}

; Function Attrs: mustprogress nounwind uwtable
define linkonce_odr hidden void @_ZN2cv7Affine3IfE6linearERKNS_4MatxIfLi3ELi3EEE(ptr noundef nonnull align 4 dereferenceable(64) %0, ptr noundef nonnull align 4 dereferenceable(36) %1) #5 comdat align 2 {
  %3 = alloca ptr, align 8
  %4 = alloca ptr, align 8
  store ptr %0, ptr %3, align 8
  store ptr %1, ptr %4, align 8
  %5 = load ptr, ptr %3, align 8
  %6 = load ptr, ptr %4, align 8
  %7 = getelementptr inbounds %"class.cv::Matx.0", ptr %6, i32 0, i32 0
  %8 = getelementptr inbounds [9 x float], ptr %7, i64 0, i64 0
  %9 = load float, ptr %8, align 4
  %10 = getelementptr inbounds %"class.cv::Affine3", ptr %5, i32 0, i32 0
  %11 = getelementptr inbounds %"class.cv::Matx.3", ptr %10, i32 0, i32 0
  %12 = getelementptr inbounds [16 x float], ptr %11, i64 0, i64 0
  store float %9, ptr %12, align 4
  %13 = load ptr, ptr %4, align 8
  %14 = getelementptr inbounds %"class.cv::Matx.0", ptr %13, i32 0, i32 0
  %15 = getelementptr inbounds [9 x float], ptr %14, i64 0, i64 1
  %16 = load float, ptr %15, align 4
  %17 = getelementptr inbounds %"class.cv::Affine3", ptr %5, i32 0, i32 0
  %18 = getelementptr inbounds %"class.cv::Matx.3", ptr %17, i32 0, i32 0
  %19 = getelementptr inbounds [16 x float], ptr %18, i64 0, i64 1
  store float %16, ptr %19, align 4
  %20 = load ptr, ptr %4, align 8
  %21 = getelementptr inbounds %"class.cv::Matx.0", ptr %20, i32 0, i32 0
  %22 = getelementptr inbounds [9 x float], ptr %21, i64 0, i64 2
  %23 = load float, ptr %22, align 4
  %24 = getelementptr inbounds %"class.cv::Affine3", ptr %5, i32 0, i32 0
  %25 = getelementptr inbounds %"class.cv::Matx.3", ptr %24, i32 0, i32 0
  %26 = getelementptr inbounds [16 x float], ptr %25, i64 0, i64 2
  store float %23, ptr %26, align 4
  %27 = load ptr, ptr %4, align 8
  %28 = getelementptr inbounds %"class.cv::Matx.0", ptr %27, i32 0, i32 0
  %29 = getelementptr inbounds [9 x float], ptr %28, i64 0, i64 3
  %30 = load float, ptr %29, align 4
  %31 = getelementptr inbounds %"class.cv::Affine3", ptr %5, i32 0, i32 0
  %32 = getelementptr inbounds %"class.cv::Matx.3", ptr %31, i32 0, i32 0
  %33 = getelementptr inbounds [16 x float], ptr %32, i64 0, i64 4
  store float %30, ptr %33, align 4
  %34 = load ptr, ptr %4, align 8
  %35 = getelementptr inbounds %"class.cv::Matx.0", ptr %34, i32 0, i32 0
  %36 = getelementptr inbounds [9 x float], ptr %35, i64 0, i64 4
  %37 = load float, ptr %36, align 4
  %38 = getelementptr inbounds %"class.cv::Affine3", ptr %5, i32 0, i32 0
  %39 = getelementptr inbounds %"class.cv::Matx.3", ptr %38, i32 0, i32 0
  %40 = getelementptr inbounds [16 x float], ptr %39, i64 0, i64 5
  store float %37, ptr %40, align 4
  %41 = load ptr, ptr %4, align 8
  %42 = getelementptr inbounds %"class.cv::Matx.0", ptr %41, i32 0, i32 0
  %43 = getelementptr inbounds [9 x float], ptr %42, i64 0, i64 5
  %44 = load float, ptr %43, align 4
  %45 = getelementptr inbounds %"class.cv::Affine3", ptr %5, i32 0, i32 0
  %46 = getelementptr inbounds %"class.cv::Matx.3", ptr %45, i32 0, i32 0
  %47 = getelementptr inbounds [16 x float], ptr %46, i64 0, i64 6
  store float %44, ptr %47, align 4
  %48 = load ptr, ptr %4, align 8
  %49 = getelementptr inbounds %"class.cv::Matx.0", ptr %48, i32 0, i32 0
  %50 = getelementptr inbounds [9 x float], ptr %49, i64 0, i64 6
  %51 = load float, ptr %50, align 4
  %52 = getelementptr inbounds %"class.cv::Affine3", ptr %5, i32 0, i32 0
  %53 = getelementptr inbounds %"class.cv::Matx.3", ptr %52, i32 0, i32 0
  %54 = getelementptr inbounds [16 x float], ptr %53, i64 0, i64 8
  store float %51, ptr %54, align 4
  %55 = load ptr, ptr %4, align 8
  %56 = getelementptr inbounds %"class.cv::Matx.0", ptr %55, i32 0, i32 0
  %57 = getelementptr inbounds [9 x float], ptr %56, i64 0, i64 7
  %58 = load float, ptr %57, align 4
  %59 = getelementptr inbounds %"class.cv::Affine3", ptr %5, i32 0, i32 0
  %60 = getelementptr inbounds %"class.cv::Matx.3", ptr %59, i32 0, i32 0
  %61 = getelementptr inbounds [16 x float], ptr %60, i64 0, i64 9
  store float %58, ptr %61, align 4
  %62 = load ptr, ptr %4, align 8
  %63 = getelementptr inbounds %"class.cv::Matx.0", ptr %62, i32 0, i32 0
  %64 = getelementptr inbounds [9 x float], ptr %63, i64 0, i64 8
  %65 = load float, ptr %64, align 4
  %66 = getelementptr inbounds %"class.cv::Affine3", ptr %5, i32 0, i32 0
  %67 = getelementptr inbounds %"class.cv::Matx.3", ptr %66, i32 0, i32 0
  %68 = getelementptr inbounds [16 x float], ptr %67, i64 0, i64 10
  store float %65, ptr %68, align 4
  ret void
}

; Function Attrs: mustprogress uwtable
define linkonce_odr hidden void @_ZN2cv7Affine3IfE11translationERKNS_3VecIfLi3EEE(ptr noundef nonnull align 4 dereferenceable(64) %0, ptr noundef nonnull align 4 dereferenceable(12) %1) #4 comdat align 2 {
  %3 = alloca ptr, align 8
  %4 = alloca ptr, align 8
  store ptr %0, ptr %3, align 8
  store ptr %1, ptr %4, align 8
  %5 = load ptr, ptr %3, align 8
  %6 = load ptr, ptr %4, align 8
  %7 = call noundef nonnull align 4 dereferenceable(4) ptr @_ZNK2cv3VecIfLi3EEixEi(ptr noundef nonnull align 4 dereferenceable(12) %6, i32 noundef 0)
  %8 = load float, ptr %7, align 4
  %9 = getelementptr inbounds %"class.cv::Affine3", ptr %5, i32 0, i32 0
  %10 = getelementptr inbounds %"class.cv::Matx.3", ptr %9, i32 0, i32 0
  %11 = getelementptr inbounds [16 x float], ptr %10, i64 0, i64 3
  store float %8, ptr %11, align 4
  %12 = load ptr, ptr %4, align 8
  %13 = call noundef nonnull align 4 dereferenceable(4) ptr @_ZNK2cv3VecIfLi3EEixEi(ptr noundef nonnull align 4 dereferenceable(12) %12, i32 noundef 1)
  %14 = load float, ptr %13, align 4
  %15 = getelementptr inbounds %"class.cv::Affine3", ptr %5, i32 0, i32 0
  %16 = getelementptr inbounds %"class.cv::Matx.3", ptr %15, i32 0, i32 0
  %17 = getelementptr inbounds [16 x float], ptr %16, i64 0, i64 7
  store float %14, ptr %17, align 4
  %18 = load ptr, ptr %4, align 8
  %19 = call noundef nonnull align 4 dereferenceable(4) ptr @_ZNK2cv3VecIfLi3EEixEi(ptr noundef nonnull align 4 dereferenceable(12) %18, i32 noundef 2)
  %20 = load float, ptr %19, align 4
  %21 = getelementptr inbounds %"class.cv::Affine3", ptr %5, i32 0, i32 0
  %22 = getelementptr inbounds %"class.cv::Matx.3", ptr %21, i32 0, i32 0
  %23 = getelementptr inbounds [16 x float], ptr %22, i64 0, i64 11
  store float %20, ptr %23, align 4
  ret void
}

; Function Attrs: mustprogress uwtable
define linkonce_odr hidden void @_ZN2cv7Affine3IfE8rotationERKNS_4MatxIfLi3ELi3EEE(ptr noundef nonnull align 4 dereferenceable(64) %0, ptr noundef nonnull align 4 dereferenceable(36) %1) #4 comdat align 2 {
  %3 = alloca ptr, align 8
  %4 = alloca ptr, align 8
  store ptr %0, ptr %3, align 8
  store ptr %1, ptr %4, align 8
  %5 = load ptr, ptr %3, align 8
  %6 = load ptr, ptr %4, align 8
  call void @_ZN2cv7Affine3IfE6linearERKNS_4MatxIfLi3ELi3EEE(ptr noundef nonnull align 4 dereferenceable(64) %5, ptr noundef nonnull align 4 dereferenceable(36) %6)
  ret void
}

; Function Attrs: mustprogress nounwind uwtable
define linkonce_odr hidden void @_ZN2cv4MatxIfLi4ELi4EEC2Ev(ptr noundef nonnull align 4 dereferenceable(64) %0) unnamed_addr #5 comdat align 2 {
  %2 = alloca ptr, align 8
  %3 = alloca i32, align 4
  store ptr %0, ptr %2, align 8
  %4 = load ptr, ptr %2, align 8
  store i32 0, ptr %3, align 4
  br label %5

5:                                                ; preds = %13, %1
  %6 = load i32, ptr %3, align 4
  %7 = icmp slt i32 %6, 16
  br i1 %7, label %8, label %16

8:                                                ; preds = %5
  %9 = getelementptr inbounds %"class.cv::Matx.3", ptr %4, i32 0, i32 0
  %10 = load i32, ptr %3, align 4
  %11 = sext i32 %10 to i64
  %12 = getelementptr inbounds [16 x float], ptr %9, i64 0, i64 %11
  store float 0.000000e+00, ptr %12, align 4
  br label %13

13:                                               ; preds = %8
  %14 = load i32, ptr %3, align 4
  %15 = add nsw i32 %14, 1
  store i32 %15, ptr %3, align 4
  br label %5, !llvm.loop !13

16:                                               ; preds = %5
  ret void
}

; Function Attrs: mustprogress nounwind uwtable
define void @_ZN2cv13colored_kinfu6Params20setInitialVolumePoseENS_4MatxIfLi4ELi4EEE(ptr noundef nonnull align 8 dereferenceable(260) %0, ptr noundef byval(%"class.cv::Matx.3") align 8 %1) #5 align 2 {
  %3 = alloca ptr, align 8
  store ptr %0, ptr %3, align 8
  %4 = load ptr, ptr %3, align 8
  %5 = getelementptr inbounds %"struct.cv::colored_kinfu::Params", ptr %4, i32 0, i32 13
  %6 = getelementptr inbounds %"class.cv::Affine3", ptr %5, i32 0, i32 0
  call void @llvm.memcpy.p0.p0.i64(ptr align 4 %6, ptr align 8 %1, i64 64, i1 false)
  ret void
}

; Function Attrs: mustprogress uwtable
define linkonce_odr hidden void @_ZN2cv7Affine3IfEC2ERKNS_4MatxIfLi3ELi3EEERKNS_3VecIfLi3EEE(ptr noundef nonnull align 4 dereferenceable(64) %0, ptr noundef nonnull align 4 dereferenceable(36) %1, ptr noundef nonnull align 4 dereferenceable(12) %2) unnamed_addr #4 comdat align 2 {
  %4 = alloca ptr, align 8
  %5 = alloca ptr, align 8
  %6 = alloca ptr, align 8
  store ptr %0, ptr %4, align 8
  store ptr %1, ptr %5, align 8
  store ptr %2, ptr %6, align 8
  %7 = load ptr, ptr %4, align 8
  %8 = getelementptr inbounds %"class.cv::Affine3", ptr %7, i32 0, i32 0
  call void @_ZN2cv4MatxIfLi4ELi4EEC2Ev(ptr noundef nonnull align 4 dereferenceable(64) %8)
  %9 = load ptr, ptr %5, align 8
  call void @_ZN2cv7Affine3IfE8rotationERKNS_4MatxIfLi3ELi3EEE(ptr noundef nonnull align 4 dereferenceable(64) %7, ptr noundef nonnull align 4 dereferenceable(36) %9)
  %10 = load ptr, ptr %6, align 8
  call void @_ZN2cv7Affine3IfE11translationERKNS_3VecIfLi3EEE(ptr noundef nonnull align 4 dereferenceable(64) %7, ptr noundef nonnull align 4 dereferenceable(12) %10)
  %11 = getelementptr inbounds %"class.cv::Affine3", ptr %7, i32 0, i32 0
  %12 = getelementptr inbounds %"class.cv::Matx.3", ptr %11, i32 0, i32 0
  %13 = getelementptr inbounds [16 x float], ptr %12, i64 0, i64 14
  store float 0.000000e+00, ptr %13, align 4
  %14 = getelementptr inbounds %"class.cv::Affine3", ptr %7, i32 0, i32 0
  %15 = getelementptr inbounds %"class.cv::Matx.3", ptr %14, i32 0, i32 0
  %16 = getelementptr inbounds [16 x float], ptr %15, i64 0, i64 13
  store float 0.000000e+00, ptr %16, align 4
  %17 = getelementptr inbounds %"class.cv::Affine3", ptr %7, i32 0, i32 0
  %18 = getelementptr inbounds %"class.cv::Matx.3", ptr %17, i32 0, i32 0
  %19 = getelementptr inbounds [16 x float], ptr %18, i64 0, i64 12
  store float 0.000000e+00, ptr %19, align 4
  %20 = getelementptr inbounds %"class.cv::Affine3", ptr %7, i32 0, i32 0
  %21 = getelementptr inbounds %"class.cv::Matx.3", ptr %20, i32 0, i32 0
  %22 = getelementptr inbounds [16 x float], ptr %21, i64 0, i64 15
  store float 1.000000e+00, ptr %22, align 4
  ret void
}

; Function Attrs: mustprogress uwtable
define void @_ZN2cv13colored_kinfu6Params20setInitialVolumePoseENS_4MatxIfLi3ELi3EEENS_3VecIfLi3EEE(ptr noundef nonnull align 8 dereferenceable(260) %0, ptr noundef byval(%"class.cv::Matx.0") align 8 %1, ptr noundef %2) #4 align 2 {
  %4 = alloca ptr, align 8
  %5 = alloca ptr, align 8
  %6 = alloca %"class.cv::Matx.3", align 8
  %7 = alloca %"class.cv::Affine3", align 4
  store ptr %0, ptr %4, align 8
  store ptr %2, ptr %5, align 8
  %8 = load ptr, ptr %4, align 8
  call void @_ZN2cv7Affine3IfEC2ERKNS_4MatxIfLi3ELi3EEERKNS_3VecIfLi3EEE(ptr noundef nonnull align 4 dereferenceable(64) %7, ptr noundef nonnull align 4 dereferenceable(36) %1, ptr noundef nonnull align 4 dereferenceable(12) %2)
  %9 = getelementptr inbounds %"class.cv::Affine3", ptr %7, i32 0, i32 0
  call void @llvm.memcpy.p0.p0.i64(ptr align 4 %6, ptr align 4 %9, i64 64, i1 false)
  call void @_ZN2cv13colored_kinfu6Params20setInitialVolumePoseENS_4MatxIfLi4ELi4EEE(ptr noundef nonnull align 8 dereferenceable(260) %8, ptr noundef byval(%"class.cv::Matx.3") align 8 %6)
  ret void
}