; Function Attrs: mustprogress nofree norecurse nosync nounwind willreturn memory(argmem: readwrite) uwtable
define void @_ZN2cv13colored_kinfu6Params20setInitialVolumePoseENS_4MatxIfLi3ELi3EEENS_3VecIfLi3EEE(ptr nocapture noundef nonnull writeonly align 8 dereferenceable(260) %0, ptr nocapture noundef readonly byval(%"class.cv::Matx.0") align 8 %1, ptr nocapture noundef readonly %2) local_unnamed_addr #3 align 2 {
  %4 = load <4 x float>, ptr %1, align 8
  %5 = getelementptr inbounds i8, ptr %1, i64 4
  %6 = load <4 x float>, ptr %5, align 4
  %7 = getelementptr inbounds i8, ptr %1, i64 12
  %8 = load <4 x float>, ptr %7, align 4
  %9 = getelementptr inbounds i8, ptr %1, i64 16
  %10 = load <4 x float>, ptr %9, align 8
  %11 = getelementptr inbounds i8, ptr %1, i64 24
  %12 = load float, ptr %11, align 8
  %13 = getelementptr inbounds i8, ptr %1, i64 28
  %14 = load <2 x float>, ptr %13, align 4
  %15 = load float, ptr %2, align 4
  %16 = getelementptr inbounds i8, ptr %2, i64 4
  %17 = load float, ptr %16, align 4
  %18 = getelementptr inbounds i8, ptr %2, i64 8
  %19 = load float, ptr %18, align 4
  %20 = getelementptr inbounds i8, ptr %0, i64 132
  %21 = shufflevector <4 x float> %4, <4 x float> %6, <4 x i32> <i32 0, i32 4, i32 5, i32 poison>
  %22 = insertelement <4 x float> %21, float %15, i64 3
  store <4 x float> %22, ptr %20, align 4
  %.sroa.720.0..sroa_idx = getelementptr inbounds i8, ptr %0, i64 148
  %23 = shufflevector <4 x float> %8, <4 x float> %10, <4 x i32> <i32 0, i32 4, i32 5, i32 poison>
  %24 = insertelement <4 x float> %23, float %17, i64 3
  store <4 x float> %24, ptr %.sroa.720.0..sroa_idx, align 4
  %.sroa.1124.0..sroa_idx = getelementptr inbounds i8, ptr %0, i64 164
  %25 = insertelement <4 x float> poison, float %12, i64 0
  %26 = shufflevector <2 x float> %14, <2 x float> poison, <4 x i32> <i32 0, i32 1, i32 poison, i32 poison>
  %27 = shufflevector <4 x float> %25, <4 x float> %26, <4 x i32> <i32 0, i32 4, i32 5, i32 poison>
  %28 = insertelement <4 x float> %27, float %19, i64 3
  store <4 x float> %28, ptr %.sroa.1124.0..sroa_idx, align 4
  %.sroa.1528.0..sroa_idx = getelementptr inbounds i8, ptr %0, i64 180
  store <4 x float> <float 0.000000e+00, float 0.000000e+00, float 0.000000e+00, float 1.000000e+00>, ptr %.sroa.1528.0..sroa_idx, align 4
  ret void
}